target datalayout = "e-m:e-p270:32:32-p271:32:32-p272:64:64-i64:64-i128:128-f80:128-n8:16:32:64-S128"
target triple = "x86_64-pc-linux-gnu"

%"class.cv::bioinspired::BasicRetinaFilter" = type { %"class.cv::bioinspired::TemplateBuffer", %"class.std::valarray", i32, i32, %"class.std::valarray", %"class.std::valarray", %"class.std::valarray", float, float, float, float, float, float, float, float }
%"class.cv::bioinspired::TemplateBuffer" = type { ptr, %"class.std::valarray", i64, i64, i64, i64, i64 }
%"class.std::valarray" = type { i64, ptr }

; Function Attrs: inlinehint mustprogress nounwind uwtable
define linkonce_odr hidden noundef i32 @_ZN2cv11bioinspired14TemplateBufferIfE9getNBrowsEv(ptr noundef nonnull align 8 dereferenceable(64) %0) #6 comdat align 2 {
  %2 = alloca ptr, align 8
  store ptr %0, ptr %2, align 8, !tbaa !23
  %3 = load ptr, ptr %2, align 8
  %4 = getelementptr inbounds nuw %"class.cv::bioinspired::TemplateBuffer", ptr %3, i32 0, i32 2
  %5 = load i64, ptr %4, align 8, !tbaa !29
  %6 = trunc i64 %5 to i32
  ret i32 %6
}

; Function Attrs: inlinehint mustprogress nounwind uwtable
define linkonce_odr hidden noundef i32 @_ZN2cv11bioinspired14TemplateBufferIfE12getNBcolumnsEv(ptr noundef nonnull align 8 dereferenceable(64) %0) #6 comdat align 2 {
  %2 = alloca ptr, align 8
  store ptr %0, ptr %2, align 8, !tbaa !23
  %3 = load ptr, ptr %2, align 8
  %4 = getelementptr inbounds nuw %"class.cv::bioinspired::TemplateBuffer", ptr %3, i32 0, i32 3
  %5 = load i64, ptr %4, align 8, !tbaa !30
  %6 = trunc i64 %5 to i32
  ret i32 %6
}

; Function Attrs: inlinehint mustprogress nounwind uwtable
define linkonce_odr hidden noundef i32 @_ZN2cv11bioinspired14TemplateBufferIfE11getNBpixelsEv(ptr noundef nonnull align 8 dereferenceable(64) %0) #6 comdat align 2 {
  %2 = alloca ptr, align 8
  store ptr %0, ptr %2, align 8, !tbaa !23
  %3 = load ptr, ptr %2, align 8
  %4 = getelementptr inbounds nuw %"class.cv::bioinspired::TemplateBuffer", ptr %3, i32 0, i32 5
  %5 = load i64, ptr %4, align 8, !tbaa !32
  %6 = trunc i64 %5 to i32
  ret i32 %6
}

; Function Attrs: mustprogress uwtable
define hidden void @_ZN2cv11bioinspired17BasicRetinaFilter40_local_verticalAnticausalFilter_multGainEPfjjPKj(ptr noundef nonnull align 8 dereferenceable(168) %0, ptr noundef %1, i32 noundef %2, i32 noundef %3, ptr noundef %4) #4 align 2 {
  %6 = alloca ptr, align 8
  %7 = alloca ptr, align 8
  %8 = alloca i32, align 4
  %9 = alloca i32, align 4
  %10 = alloca ptr, align 8
  %11 = alloca ptr, align 8
  %12 = alloca ptr, align 8
  %13 = alloca i32, align 4
  %14 = alloca i32, align 4
  %15 = alloca float, align 4
  %16 = alloca ptr, align 8
  %17 = alloca i32, align 4
  store ptr %0, ptr %6, align 8, !tbaa !3
  store ptr %1, ptr %7, align 8, !tbaa !49
  store i32 %2, ptr %8, align 4, !tbaa !8
  store i32 %3, ptr %9, align 4, !tbaa !8
  store ptr %4, ptr %10, align 8, !tbaa !113
  %18 = load ptr, ptr %6, align 8
  call void @llvm.lifetime.start.p0(i64 8, ptr %11) #3
  %19 = load ptr, ptr %10, align 8, !tbaa !113
  store ptr %19, ptr %11, align 8, !tbaa !113
  call void @llvm.lifetime.start.p0(i64 8, ptr %12) #3
  %20 = load ptr, ptr %7, align 8, !tbaa !49
  %21 = getelementptr inbounds nuw %"class.cv::bioinspired::BasicRetinaFilter", ptr %18, i32 0, i32 0
  %22 = call noundef i32 @_ZN2cv11bioinspired14TemplateBufferIfE11getNBpixelsEv(ptr noundef nonnull align 8 dereferenceable(64) %21)
  %23 = zext i32 %22 to i64
  %24 = getelementptr inbounds nuw float, ptr %20, i64 %23
  %25 = getelementptr inbounds nuw %"class.cv::bioinspired::BasicRetinaFilter", ptr %18, i32 0, i32 0
  %26 = call noundef i32 @_ZN2cv11bioinspired14TemplateBufferIfE12getNBcolumnsEv(ptr noundef nonnull align 8 dereferenceable(64) %25)
  %27 = zext i32 %26 to i64
  %28 = sub i64 0, %27
  %29 = getelementptr inbounds float, ptr %24, i64 %28
  store ptr %29, ptr %12, align 8, !tbaa !49
  call void @llvm.lifetime.start.p0(i64 4, ptr %13) #3
  %30 = load i32, ptr %8, align 4, !tbaa !8
  store i32 %30, ptr %13, align 4, !tbaa !8
  br label %31

31:                                               ; preds = %76, %5
  %32 = load i32, ptr %13, align 4, !tbaa !8
  %33 = load i32, ptr %9, align 4, !tbaa !8
  %34 = icmp ult i32 %32, %33
  br i1 %34, label %36, label %35

35:                                               ; preds = %31
  store i32 2, ptr %14, align 4
  call void @llvm.lifetime.end.p0(i64 4, ptr %13) #3
  br label %79

36:                                               ; preds = %31
  call void @llvm.lifetime.start.p0(i64 4, ptr %15) #3
  store float 0.000000e+00, ptr %15, align 4, !tbaa !26
  call void @llvm.lifetime.start.p0(i64 8, ptr %16) #3
  %37 = load ptr, ptr %12, align 8, !tbaa !49
  %38 = load i32, ptr %13, align 4, !tbaa !8
  %39 = zext i32 %38 to i64
  %40 = getelementptr inbounds nuw float, ptr %37, i64 %39
  store ptr %40, ptr %16, align 8, !tbaa !49
  call void @llvm.lifetime.start.p0(i64 4, ptr %17) #3
  store i32 0, ptr %17, align 4, !tbaa !8
  br label %41

41:                                               ; preds = %72, %36
  %42 = load i32, ptr %17, align 4, !tbaa !8
  %43 = getelementptr inbounds nuw %"class.cv::bioinspired::BasicRetinaFilter", ptr %18, i32 0, i32 0
  %44 = call noundef i32 @_ZN2cv11bioinspired14TemplateBufferIfE9getNBrowsEv(ptr noundef nonnull align 8 dereferenceable(64) %43)
  %45 = icmp ult i32 %42, %44
  br i1 %45, label %47, label %46

46:                                               ; preds = %41
  store i32 5, ptr %14, align 4
  call void @llvm.lifetime.end.p0(i64 4, ptr %17) #3
  br label %75

47:                                               ; preds = %41
  %48 = load ptr, ptr %11, align 8, !tbaa !113
  %49 = getelementptr inbounds nuw i32, ptr %48, i32 1
  store ptr %49, ptr %11, align 8, !tbaa !113
  %50 = load i32, ptr %48, align 4, !tbaa !8
  %51 = icmp ne i32 %50, 0
  br i1 %51, label %52, label %59

52:                                               ; preds = %47
  %53 = load ptr, ptr %16, align 8, !tbaa !49
  %54 = load float, ptr %53, align 4, !tbaa !26
  %55 = getelementptr inbounds nuw %"class.cv::bioinspired::BasicRetinaFilter", ptr %18, i32 0, i32 12
  %56 = load float, ptr %55, align 4, !tbaa !46
  %57 = load float, ptr %15, align 4, !tbaa !26
  %58 = call float @llvm.fmuladd.f32(float %56, float %57, float %54)
  store float %58, ptr %15, align 4, !tbaa !26
  br label %60

59:                                               ; preds = %47
  store float 0.000000e+00, ptr %15, align 4, !tbaa !26
  br label %60

60:                                               ; preds = %59, %52
  %61 = getelementptr inbounds nuw %"class.cv::bioinspired::BasicRetinaFilter", ptr %18, i32 0, i32 14
  %62 = load float, ptr %61, align 4, !tbaa !53
  %63 = load float, ptr %15, align 4, !tbaa !26
  %64 = fmul float %62, %63
  %65 = load ptr, ptr %16, align 8, !tbaa !49
  store float %64, ptr %65, align 4, !tbaa !26
  %66 = getelementptr inbounds nuw %"class.cv::bioinspired::BasicRetinaFilter", ptr %18, i32 0, i32 0
  %67 = call noundef i32 @_ZN2cv11bioinspired14TemplateBufferIfE12getNBcolumnsEv(ptr noundef nonnull align 8 dereferenceable(64) %66)
  %68 = load ptr, ptr %16, align 8, !tbaa !49
  %69 = zext i32 %67 to i64
  %70 = sub i64 0, %69
  %71 = getelementptr inbounds float, ptr %68, i64 %70
  store ptr %71, ptr %16, align 8, !tbaa !49
  br label %72

72:                                               ; preds = %60
  %73 = load i32, ptr %17, align 4, !tbaa !8
  %74 = add i32 %73, 1
  store i32 %74, ptr %17, align 4, !tbaa !8
  br label %41, !llvm.loop !121

75:                                               ; preds = %46
  call void @llvm.lifetime.end.p0(i64 8, ptr %16) #3
  call void @llvm.lifetime.end.p0(i64 4, ptr %15) #3
  br label %76

76:                                               ; preds = %75
  %77 = load i32, ptr %13, align 4, !tbaa !8
  %78 = add i32 %77, 1
  store i32 %78, ptr %13, align 4, !tbaa !8
  br label %31, !llvm.loop !122

79:                                               ; preds = %35
  call void @llvm.lifetime.end.p0(i64 8, ptr %12) #3
  call void @llvm.lifetime.end.p0(i64 8, ptr %11) #3
  ret void
}