; Function Attrs: mustprogress nofree norecurse nosync nounwind memory(argmem: readwrite) uwtable
define hidden void @_ZN2cv11bioinspired17BasicRetinaFilter40_local_verticalAnticausalFilter_multGainEPfjjPKj(ptr noundef nonnull readonly align 8 captures(none) dereferenceable(168) %0, ptr noundef captures(none) %1, i32 noundef %2, i32 noundef %3, ptr noundef readonly captures(none) %4) local_unnamed_addr #9 align 2 {
  %6 = getelementptr inbounds nuw i8, ptr %0, i64 48
  %7 = load i64, ptr %6, align 8, !tbaa !19
  %8 = and i64 %7, 4294967295
  %9 = getelementptr inbounds nuw float, ptr %1, i64 %8
  %10 = getelementptr inbounds nuw i8, ptr %0, i64 32
  %11 = load i64, ptr %10, align 8, !tbaa !17
  %12 = and i64 %11, 4294967295
  %13 = sub nsw i64 0, %12
  %14 = getelementptr inbounds float, ptr %9, i64 %13
  %15 = icmp ult i32 %2, %3
  br i1 %15, label %.lr.ph28, label %._crit_edge29

.lr.ph28:                                         ; preds = %5
  %16 = getelementptr inbounds nuw i8, ptr %0, i64 24
  %17 = load i64, ptr %16, align 8, !tbaa !15
  %18 = trunc i64 %17 to i32
  %.not = icmp eq i32 %18, 0
  %19 = getelementptr inbounds nuw i8, ptr %0, i64 156
  %20 = getelementptr inbounds nuw i8, ptr %0, i64 164
  br i1 %.not, label %._crit_edge29, label %.lr.ph.us.preheader

.lr.ph.us.preheader:                              ; preds = %.lr.ph28
  %21 = zext i32 %2 to i64
  %wide.trip.count = zext i32 %3 to i64
  br label %.lr.ph.us

.lr.ph.us:                                        ; preds = %.lr.ph.us.preheader, %._crit_edge.us
  %indvars.iv = phi i64 [ %21, %.lr.ph.us.preheader ], [ %indvars.iv.next, %._crit_edge.us ]
  %.01925.us = phi ptr [ %4, %.lr.ph.us.preheader ], [ %24, %._crit_edge.us ]
  %22 = getelementptr inbounds nuw float, ptr %14, i64 %indvars.iv
  br label %23

23:                                               ; preds = %.lr.ph.us, %30
  %.024.us = phi i32 [ 0, %.lr.ph.us ], [ %34, %30 ]
  %.01623.us = phi ptr [ %22, %.lr.ph.us ], [ %33, %30 ]
  %.01722.us = phi float [ 0.000000e+00, %.lr.ph.us ], [ %.1.us, %30 ]
  %.12021.us = phi ptr [ %.01925.us, %.lr.ph.us ], [ %24, %30 ]
  %24 = getelementptr inbounds nuw i8, ptr %.12021.us, i64 4
  %25 = load i32, ptr %.12021.us, align 4, !tbaa !61
  %.not.us = icmp eq i32 %25, 0
  br i1 %.not.us, label %30, label %26

26:                                               ; preds = %23
  %27 = load float, ptr %.01623.us, align 4, !tbaa !11
  %28 = load float, ptr %19, align 4, !tbaa !65
  %29 = tail call float @llvm.fmuladd.f32(float %28, float %.01722.us, float %27)
  br label %30

30:                                               ; preds = %26, %23
  %.1.us = phi float [ %29, %26 ], [ 0.000000e+00, %23 ]
  %31 = load float, ptr %20, align 4, !tbaa !83
  %32 = fmul float %.1.us, %31
  store float %32, ptr %.01623.us, align 4, !tbaa !11
  %33 = getelementptr inbounds float, ptr %.01623.us, i64 %13
  %34 = add nuw i32 %.024.us, 1
  %exitcond.not = icmp eq i32 %34, %18
  br i1 %exitcond.not, label %._crit_edge.us, label %23, !llvm.loop !125

._crit_edge.us:                                   ; preds = %30
  %indvars.iv.next = add nuw nsw i64 %indvars.iv, 1
  %exitcond32.not = icmp eq i64 %indvars.iv.next, %wide.trip.count
  br i1 %exitcond32.not, label %._crit_edge29, label %.lr.ph.us, !llvm.loop !126

._crit_edge29:                                    ; preds = %._crit_edge.us, %.lr.ph28, %5
  ret void
}